---
triple:          'arm64-apple-darwin'
binary-path:     '/Users/kajalbormon/Developer/Code/CodeChef/Number_theory/Hackerman/output/Hackerman'
relocations:
  - { offsetInCU: 0x2D97, offset: 0x2D97, size: 0x8, addend: 0x0, symName: __ZNSt3__124__put_character_sequenceB8ue170006IcNS_11char_traitsIcEEEERNS_13basic_ostreamIT_T0_EES7_PKS4_m, symObjAddr: 0x2CC, symBinAddr: 0x1000031BC, symSize: 0x1F4 }
  - { offsetInCU: 0x46E4, offset: 0x46E4, size: 0x8, addend: 0x0, symName: __ZNSt3__1lsB8ue170006INS_11char_traitsIcEEEERNS_13basic_ostreamIcT_EES6_PKc, symObjAddr: 0x200, symBinAddr: 0x1000030F0, symSize: 0x48 }
  - { offsetInCU: 0x472A, offset: 0x472A, size: 0x8, addend: 0x0, symName: __ZNSt3__14endlB8ue170006IcNS_11char_traitsIcEEEERNS_13basic_ostreamIT_T0_EES7_, symObjAddr: 0x274, symBinAddr: 0x100003164, symSize: 0x58 }
  - { offsetInCU: 0x476A, offset: 0x476A, size: 0x8, addend: 0x0, symName: __ZNSt3__116__pad_and_outputB8ue170006IcNS_11char_traitsIcEEEENS_19ostreambuf_iteratorIT_T0_EES6_PKS4_S8_S8_RNS_8ios_baseES4_, symObjAddr: 0x524, symBinAddr: 0x100003414, symSize: 0x248 }
  - { offsetInCU: 0x4839, offset: 0x4839, size: 0x8, addend: 0x0, symName: __ZNSt3__112__to_addressB8ue170006IKcEEPT_S3_, symObjAddr: 0xAA0, symBinAddr: 0x100003990, symSize: 0x14 }
  - { offsetInCU: 0x486E, offset: 0x486E, size: 0x8, addend: 0x0, symName: __ZNSt3__130__libcpp_is_constant_evaluatedB8ue170006Ev, symObjAddr: 0xBCC, symBinAddr: 0x100003ABC, symSize: 0xC }
  - { offsetInCU: 0x48BE, offset: 0x48BE, size: 0x8, addend: 0x0, symName: __ZNSt3__19use_facetB8ue170006INS_5ctypeIcEEEERKT_RKNS_6localeE, symObjAddr: 0xD84, symBinAddr: 0x100003C74, symSize: 0x2C }
  - { offsetInCU: 0x4D8B, offset: 0x4D8B, size: 0x8, addend: 0x0, symName: __ZNSt3__118__constexpr_strlenB8ue170006EPKc, symObjAddr: 0xE1C, symBinAddr: 0x100003D0C, symSize: 0x24 }
  - { offsetInCU: 0x7383, offset: 0x7383, size: 0x8, addend: 0x0, symName: __Z3GCDii, symObjAddr: 0x0, symBinAddr: 0x100002EF0, symSize: 0x68 }
  - { offsetInCU: 0x73BD, offset: 0x73BD, size: 0x8, addend: 0x0, symName: _main, symObjAddr: 0x68, symBinAddr: 0x100002F58, symSize: 0x174 }
  - { offsetInCU: 0x7455, offset: 0x7455, size: 0x8, addend: 0x0, symName: __Z4ceilB8ue170006IiENSt3__19enable_ifIXsr3std11is_integralIT_EE5valueEdE4typeES2_, symObjAddr: 0x1DC, symBinAddr: 0x1000030CC, symSize: 0x24 }
  - { offsetInCU: 0x748C, offset: 0x748C, size: 0x8, addend: 0x0, symName: __ZNSt3__113basic_ostreamIcNS_11char_traitsIcEEElsB8ue170006EPFRS3_S4_E, symObjAddr: 0x248, symBinAddr: 0x100003138, symSize: 0x2C }
  - { offsetInCU: 0x74BE, offset: 0x74BE, size: 0x8, addend: 0x0, symName: __ZNSt3__111char_traitsIcE6lengthB8ue170006EPKc, symObjAddr: 0x4C0, symBinAddr: 0x1000033B0, symSize: 0x48 }
  - { offsetInCU: 0x74FE, offset: 0x74FE, size: 0x8, addend: 0x0, symName: __ZNKSt3__113basic_ostreamIcNS_11char_traitsIcEEE6sentrycvbB8ue170006Ev, symObjAddr: 0x508, symBinAddr: 0x1000033F8, symSize: 0x1C }
  - { offsetInCU: 0x7522, offset: 0x7522, size: 0x8, addend: 0x0, symName: __ZNSt3__119ostreambuf_iteratorIcNS_11char_traitsIcEEEC1B8ue170006ERNS_13basic_ostreamIcS2_EE, symObjAddr: 0x76C, symBinAddr: 0x10000365C, symSize: 0x34 }
  - { offsetInCU: 0x7558, offset: 0x7558, size: 0x8, addend: 0x0, symName: __ZNKSt3__18ios_base5flagsB8ue170006Ev, symObjAddr: 0x7A0, symBinAddr: 0x100003690, symSize: 0x18 }
  - { offsetInCU: 0x757E, offset: 0x757E, size: 0x8, addend: 0x0, symName: __ZNKSt3__19basic_iosIcNS_11char_traitsIcEEE4fillB8ue170006Ev, symObjAddr: 0x7B8, symBinAddr: 0x1000036A8, symSize: 0x64 }
  - { offsetInCU: 0x75A4, offset: 0x75A4, size: 0x8, addend: 0x0, symName: __ZNKSt3__119ostreambuf_iteratorIcNS_11char_traitsIcEEE6failedB8ue170006Ev, symObjAddr: 0x81C, symBinAddr: 0x10000370C, symSize: 0x24 }
  - { offsetInCU: 0x75C8, offset: 0x75C8, size: 0x8, addend: 0x0, symName: __ZNSt3__19basic_iosIcNS_11char_traitsIcEEE8setstateB8ue170006Ej, symObjAddr: 0x840, symBinAddr: 0x100003730, symSize: 0x2C }
  - { offsetInCU: 0x75FB, offset: 0x75FB, size: 0x8, addend: 0x0, symName: __ZNKSt3__18ios_base5widthB8ue170006Ev, symObjAddr: 0x878, symBinAddr: 0x100003768, symSize: 0x18 }
  - { offsetInCU: 0x7621, offset: 0x7621, size: 0x8, addend: 0x0, symName: __ZNSt3__115basic_streambufIcNS_11char_traitsIcEEE5sputnB8ue170006EPKcl, symObjAddr: 0x890, symBinAddr: 0x100003780, symSize: 0x3C }
  - { offsetInCU: 0x7661, offset: 0x7661, size: 0x8, addend: 0x0, symName: __ZNSt3__112basic_stringIcNS_11char_traitsIcEENS_9allocatorIcEEEC1B8ue170006Emc, symObjAddr: 0x8CC, symBinAddr: 0x1000037BC, symSize: 0x3C }
  - { offsetInCU: 0x76A7, offset: 0x76A7, size: 0x8, addend: 0x0, symName: __ZNKSt3__112basic_stringIcNS_11char_traitsIcEENS_9allocatorIcEEE4dataB8ue170006Ev, symObjAddr: 0x908, symBinAddr: 0x1000037F8, symSize: 0x28 }
  - { offsetInCU: 0x76CB, offset: 0x76CB, size: 0x8, addend: 0x0, symName: __ZNSt3__18ios_base5widthB8ue170006El, symObjAddr: 0x930, symBinAddr: 0x100003820, symSize: 0x2C }
  - { offsetInCU: 0x770F, offset: 0x770F, size: 0x8, addend: 0x0, symName: __ZNSt3__112basic_stringIcNS_11char_traitsIcEENS_9allocatorIcEEEC2B8ue170006Emc, symObjAddr: 0x95C, symBinAddr: 0x10000384C, symSize: 0x4C }
  - { offsetInCU: 0x775A, offset: 0x775A, size: 0x8, addend: 0x0, symName: __ZNSt3__117__compressed_pairINS_12basic_stringIcNS_11char_traitsIcEENS_9allocatorIcEEE5__repES5_EC1B8ue170006INS_18__default_init_tagESA_EEOT_OT0_, symObjAddr: 0x9A8, symBinAddr: 0x100003898, symSize: 0x3C }
  - { offsetInCU: 0x77B0, offset: 0x77B0, size: 0x8, addend: 0x0, symName: __ZNSt3__117__compressed_pairINS_12basic_stringIcNS_11char_traitsIcEENS_9allocatorIcEEE5__repES5_EC2B8ue170006INS_18__default_init_tagESA_EEOT_OT0_, symObjAddr: 0x9E4, symBinAddr: 0x1000038D4, symSize: 0x3C }
  - { offsetInCU: 0x7806, offset: 0x7806, size: 0x8, addend: 0x0, symName: __ZNSt3__122__compressed_pair_elemINS_12basic_stringIcNS_11char_traitsIcEENS_9allocatorIcEEE5__repELi0ELb0EEC2B8ue170006ENS_18__default_init_tagE, symObjAddr: 0xA20, symBinAddr: 0x100003910, symSize: 0x14 }
  - { offsetInCU: 0x7838, offset: 0x7838, size: 0x8, addend: 0x0, symName: __ZNSt3__122__compressed_pair_elemINS_9allocatorIcEELi1ELb1EEC2B8ue170006ENS_18__default_init_tagE, symObjAddr: 0xA34, symBinAddr: 0x100003924, symSize: 0x2C }
  - { offsetInCU: 0x786A, offset: 0x786A, size: 0x8, addend: 0x0, symName: __ZNSt3__19allocatorIcEC2B8ue170006Ev, symObjAddr: 0xA60, symBinAddr: 0x100003950, symSize: 0x2C }
  - { offsetInCU: 0x7892, offset: 0x7892, size: 0x8, addend: 0x0, symName: __ZNSt3__116__non_trivial_ifILb1ENS_9allocatorIcEEEC2B8ue170006Ev, symObjAddr: 0xA8C, symBinAddr: 0x10000397C, symSize: 0x14 }
  - { offsetInCU: 0x78BA, offset: 0x78BA, size: 0x8, addend: 0x0, symName: __ZNKSt3__112basic_stringIcNS_11char_traitsIcEENS_9allocatorIcEEE13__get_pointerB8ue170006Ev, symObjAddr: 0xAB4, symBinAddr: 0x1000039A4, symSize: 0x54 }
  - { offsetInCU: 0x78DE, offset: 0x78DE, size: 0x8, addend: 0x0, symName: __ZNKSt3__112basic_stringIcNS_11char_traitsIcEENS_9allocatorIcEEE9__is_longB8ue170006Ev, symObjAddr: 0xB08, symBinAddr: 0x1000039F8, symSize: 0x74 }
  - { offsetInCU: 0x7902, offset: 0x7902, size: 0x8, addend: 0x0, symName: __ZNKSt3__112basic_stringIcNS_11char_traitsIcEENS_9allocatorIcEEE18__get_long_pointerB8ue170006Ev, symObjAddr: 0xB7C, symBinAddr: 0x100003A6C, symSize: 0x28 }
  - { offsetInCU: 0x7926, offset: 0x7926, size: 0x8, addend: 0x0, symName: __ZNKSt3__112basic_stringIcNS_11char_traitsIcEENS_9allocatorIcEEE19__get_short_pointerB8ue170006Ev, symObjAddr: 0xBA4, symBinAddr: 0x100003A94, symSize: 0x28 }
  - { offsetInCU: 0x794A, offset: 0x794A, size: 0x8, addend: 0x0, symName: __ZNKSt3__117__compressed_pairINS_12basic_stringIcNS_11char_traitsIcEENS_9allocatorIcEEE5__repES5_E5firstB8ue170006Ev, symObjAddr: 0xBD8, symBinAddr: 0x100003AC8, symSize: 0x24 }
  - { offsetInCU: 0x796E, offset: 0x796E, size: 0x8, addend: 0x0, symName: __ZNKSt3__122__compressed_pair_elemINS_12basic_stringIcNS_11char_traitsIcEENS_9allocatorIcEEE5__repELi0ELb0EE5__getB8ue170006Ev, symObjAddr: 0xBFC, symBinAddr: 0x100003AEC, symSize: 0x14 }
  - { offsetInCU: 0x7992, offset: 0x7992, size: 0x8, addend: 0x0, symName: __ZNSt3__114pointer_traitsIPKcE10pointer_toB8ue170006ERS1_, symObjAddr: 0xC10, symBinAddr: 0x100003B00, symSize: 0x14 }
  - { offsetInCU: 0x79B4, offset: 0x79B4, size: 0x8, addend: 0x0, symName: __ZNSt3__119ostreambuf_iteratorIcNS_11char_traitsIcEEEC2B8ue170006ERNS_13basic_ostreamIcS2_EE, symObjAddr: 0xC24, symBinAddr: 0x100003B14, symSize: 0x68 }
  - { offsetInCU: 0x79EA, offset: 0x79EA, size: 0x8, addend: 0x0, symName: __ZNKSt3__19basic_iosIcNS_11char_traitsIcEEE5rdbufB8ue170006Ev, symObjAddr: 0xC8C, symBinAddr: 0x100003B7C, symSize: 0x24 }
  - { offsetInCU: 0x7A10, offset: 0x7A10, size: 0x8, addend: 0x0, symName: __ZNKSt3__18ios_base5rdbufB8ue170006Ev, symObjAddr: 0xCB0, symBinAddr: 0x100003BA0, symSize: 0x18 }
  - { offsetInCU: 0x7A34, offset: 0x7A34, size: 0x8, addend: 0x0, symName: __ZNSt3__111char_traitsIcE11eq_int_typeB8ue170006Eii, symObjAddr: 0xCC8, symBinAddr: 0x100003BB8, symSize: 0x28 }
  - { offsetInCU: 0x7A67, offset: 0x7A67, size: 0x8, addend: 0x0, symName: __ZNSt3__111char_traitsIcE3eofB8ue170006Ev, symObjAddr: 0xCF0, symBinAddr: 0x100003BE0, symSize: 0x8 }
  - { offsetInCU: 0x7A79, offset: 0x7A79, size: 0x8, addend: 0x0, symName: __ZNKSt3__19basic_iosIcNS_11char_traitsIcEEE5widenB8ue170006Ec, symObjAddr: 0xCF8, symBinAddr: 0x100003BE8, symSize: 0x8C }
  - { offsetInCU: 0x7AE5, offset: 0x7AE5, size: 0x8, addend: 0x0, symName: __ZNKSt3__15ctypeIcE5widenB8ue170006Ec, symObjAddr: 0xDB0, symBinAddr: 0x100003CA0, symSize: 0x38 }
  - { offsetInCU: 0x7B18, offset: 0x7B18, size: 0x8, addend: 0x0, symName: __ZNSt3__18ios_base8setstateB8ue170006Ej, symObjAddr: 0xDE8, symBinAddr: 0x100003CD8, symSize: 0x34 }
...
